target datalayout = "e-m:e-p270:32:32-p271:32:32-p272:64:64-i64:64-i128:128-f80:128-n8:16:32:64-S128"
target triple = "x86_64-pc-linux-gnu"

@.str.70 = private unnamed_addr constant [6 x i8] c"/XRef\00", align 1
@.str.333 = private unnamed_addr constant [5 x i8] c"xref\00", align 1
@.str.334 = private unnamed_addr constant [21 x i8] c"cli_pdf: found xref\0A\00", align 1
@.str.335 = private unnamed_addr constant [22 x i8] c"cli_pdf: found /XRef\0A\00", align 1

; Function Attrs: nounwind uwtable
define internal i32 @xrefCheck(ptr noundef %0, ptr noundef %1) #0 {
  %3 = alloca i32, align 4
  %4 = alloca ptr, align 8
  %5 = alloca ptr, align 8
  %6 = alloca ptr, align 8
  store ptr %0, ptr %4, align 8
  store ptr %1, ptr %5, align 8
  br label %7

7:                                                ; preds = %30, %2
  %8 = load ptr, ptr %4, align 8
  %9 = load ptr, ptr %5, align 8
  %10 = icmp ult ptr %8, %9
  br i1 %10, label %11, label %28

11:                                               ; preds = %7
  %12 = load ptr, ptr %4, align 8
  %13 = load i8, ptr %12, align 1
  %14 = sext i8 %13 to i32
  %15 = icmp eq i32 %14, 32
  br i1 %15, label %26, label %16

16:                                               ; preds = %11
  %17 = load ptr, ptr %4, align 8
  %18 = load i8, ptr %17, align 1
  %19 = sext i8 %18 to i32
  %20 = icmp eq i32 %19, 10
  br i1 %20, label %26, label %21

21:                                               ; preds = %16
  %22 = load ptr, ptr %4, align 8
  %23 = load i8, ptr %22, align 1
  %24 = sext i8 %23 to i32
  %25 = icmp eq i32 %24, 13
  br label %26

26:                                               ; preds = %21, %16, %11
  %27 = phi i1 [ true, %16 ], [ true, %11 ], [ %25, %21 ]
  br label %28

28:                                               ; preds = %26, %7
  %29 = phi i1 [ false, %7 ], [ %27, %26 ]
  br i1 %29, label %30, label %33

30:                                               ; preds = %28
  %31 = load ptr, ptr %4, align 8
  %32 = getelementptr inbounds i8, ptr %31, i32 1
  store ptr %32, ptr %4, align 8
  br label %7

33:                                               ; preds = %28
  %34 = load ptr, ptr %4, align 8
  %35 = getelementptr inbounds i8, ptr %34, i64 4
  %36 = load ptr, ptr %5, align 8
  %37 = icmp uge ptr %35, %36
  br i1 %37, label %38, label %39

38:                                               ; preds = %33
  store i32 -1, ptr %3, align 4
  br label %61

39:                                               ; preds = %33
  %40 = load ptr, ptr %4, align 8
  %41 = call i32 @memcmp(ptr noundef %40, ptr noundef @.str.333, i64 noundef 4) #13
  %42 = icmp ne i32 %41, 0
  br i1 %42, label %44, label %43

43:                                               ; preds = %39
  call void (ptr, ...) @cli_dbgmsg(ptr noundef @.str.334)
  store i32 0, ptr %3, align 4
  br label %61

44:                                               ; preds = %39
  %45 = load ptr, ptr %4, align 8
  store ptr %45, ptr %6, align 8
  br label %46

46:                                               ; preds = %57, %44
  %47 = load ptr, ptr %6, align 8
  %48 = getelementptr inbounds i8, ptr %47, i64 5
  %49 = load ptr, ptr %5, align 8
  %50 = icmp ult ptr %48, %49
  br i1 %50, label %51, label %60

51:                                               ; preds = %46
  %52 = load ptr, ptr %6, align 8
  %53 = call i32 @memcmp(ptr noundef %52, ptr noundef @.str.70, i64 noundef 5) #13
  %54 = icmp ne i32 %53, 0
  br i1 %54, label %56, label %55

55:                                               ; preds = %51
  call void (ptr, ...) @cli_dbgmsg(ptr noundef @.str.335)
  store i32 0, ptr %3, align 4
  br label %61

56:                                               ; preds = %51
  br label %57

57:                                               ; preds = %56
  %58 = load ptr, ptr %6, align 8
  %59 = getelementptr inbounds i8, ptr %58, i32 1
  store ptr %59, ptr %6, align 8
  br label %46

60:                                               ; preds = %46
  store i32 -1, ptr %3, align 4
  br label %61

61:                                               ; preds = %60, %55, %43, %38
  %62 = load i32, ptr %3, align 4
  ret i32 %62
}