; Function Attrs: nounwind uwtable
define internal fastcc noundef i32 @xrefCheck(ptr noundef readonly %0, ptr noundef readnone %1) unnamed_addr #0 {
  %3 = icmp ult ptr %0, %1
  br i1 %3, label %.lr.ph.preheader, label %.critedge

.lr.ph.preheader:                                 ; preds = %2
  %4 = ptrtoint ptr %1 to i64
  %5 = ptrtoint ptr %0 to i64
  %6 = sub i64 %4, %5
  %scevgep = getelementptr i8, ptr %0, i64 %6
  br label %.lr.ph

.lr.ph:                                           ; preds = %.lr.ph.preheader, %.critedge2
  %.01723 = phi ptr [ %8, %.critedge2 ], [ %0, %.lr.ph.preheader ]
  %7 = load i8, ptr %.01723, align 1
  switch i8 %7, label %.critedge [
    i8 32, label %.critedge2
    i8 10, label %.critedge2
    i8 13, label %.critedge2
  ]

.critedge2:                                       ; preds = %.lr.ph, %.lr.ph, %.lr.ph
  %8 = getelementptr inbounds i8, ptr %.01723, i64 1
  %exitcond.not = icmp eq ptr %8, %1
  br i1 %exitcond.not, label %.critedge, label %.lr.ph

.critedge:                                        ; preds = %.critedge2, %.lr.ph, %2
  %.017.lcssa = phi ptr [ %0, %2 ], [ %.01723, %.lr.ph ], [ %scevgep, %.critedge2 ]
  %9 = getelementptr inbounds i8, ptr %.017.lcssa, i64 4
  %.not = icmp ult ptr %9, %1
  br i1 %.not, label %10, label %.loopexit

10:                                               ; preds = %.critedge
  %bcmp = tail call i32 @bcmp(ptr noundef nonnull dereferenceable(4) %.017.lcssa, ptr noundef nonnull dereferenceable(4) @.str.333, i64 4)
  %.not20 = icmp eq i32 %bcmp, 0
  br i1 %.not20, label %.loopexit.sink.split, label %.preheader

.preheader:                                       ; preds = %10
  %11 = getelementptr inbounds i8, ptr %.017.lcssa, i64 5
  %12 = icmp ult ptr %11, %1
  br i1 %12, label %.lr.ph27, label %.loopexit

13:                                               ; preds = %.lr.ph27
  %14 = getelementptr inbounds i8, ptr %.026, i64 1
  %15 = getelementptr inbounds i8, ptr %.026, i64 6
  %16 = icmp ult ptr %15, %1
  br i1 %16, label %.lr.ph27, label %.loopexit

.lr.ph27:                                         ; preds = %.preheader, %13
  %.026 = phi ptr [ %14, %13 ], [ %.017.lcssa, %.preheader ]
  %bcmp21 = tail call i32 @bcmp(ptr noundef nonnull dereferenceable(5) %.026, ptr noundef nonnull dereferenceable(5) @.str.70, i64 5)
  %.not22 = icmp eq i32 %bcmp21, 0
  br i1 %.not22, label %.loopexit.sink.split, label %13

.loopexit.sink.split:                             ; preds = %.lr.ph27, %10
  %.str.335.sink = phi ptr [ @.str.334, %10 ], [ @.str.335, %.lr.ph27 ]
  tail call void (ptr, ...) @cli_dbgmsg(ptr noundef nonnull %.str.335.sink) #22
  br label %.loopexit

.loopexit:                                        ; preds = %13, %.loopexit.sink.split, %.preheader, %.critedge
  %.016 = phi i32 [ -1, %.critedge ], [ -1, %.preheader ], [ 0, %.loopexit.sink.split ], [ -1, %13 ]
  ret i32 %.016
}